Certificate:
    Data:
        Version: 3 (0x2)
        Serial Number: 1 (0x1)
        Signature Algorithm: sha256WithRSAEncryption
        Issuer: C=US, ST=California, L=San Francisco, O=Kong Inc., CN=Kong
        Validity
            Not Before: Apr  8 17:06:20 2024 GMT
            Not After : Apr  6 17:06:20 2034 GMT
        Subject: C=US, ST=California, O=Kong Inc., OU=Konnect, CN=kong/emailAddress=contact@konghq.com
        Subject Public Key Info:
            Public Key Algorithm: rsaEncryption
                Public-Key: (4096 bit)
                Modulus:
                    00:a9:50:0a:06:02:ec:ea:0c:f1:a9:74:bf:b3:fe:
                    f1:f7:f1:ec:2f:1a:6c:5d:21:7e:ea:89:e6:36:60:
                    c2:46:d3:6d:08:2e:d5:96:77:02:96:11:25:d0:c3:
                    33:5a:13:0c:7e:58:6a:48:42:ce:6d:31:04:dc:87:
                    19:de:76:ce:46:bf:83:94:ef:a0:45:98:56:9a:81:
                    12:c6:4d:97:29:15:e8:6c:a5:bd:f7:f4:40:53:a0:
                    37:ae:bd:a9:66:af:b9:a2:dc:50:2b:96:4b:d8:bf:
                    09:39:e9:b7:1a:f1:52:04:cb:39:8c:55:ba:8f:6e:
                    64:d1:47:d2:86:6e:b2:65:a0:d7:e3:be:ba:a7:72:
                    db:3f:49:70:43:0e:7c:5f:b4:09:9a:9a:44:38:70:
                    1f:a3:e1:8a:4b:21:fe:0d:5c:c3:7d:4c:99:29:9c:
                    71:29:3e:be:cd:2f:3f:74:8f:d5:97:ea:52:75:c3:
                    ff:34:1e:e6:16:9a:1a:66:f7:ac:ca:4a:bb:88:6e:
                    f8:b4:4d:72:44:43:ae:ef:cf:79:43:11:27:e8:15:
                    2c:1d:db:88:b0:0a:97:f6:a7:c1:dd:64:de:00:f2:
                    bf:06:07:d9:ba:d4:a7:a7:01:54:e1:53:f9:27:ae:
                    0f:03:a1:65:7e:3d:f6:b6:9d:6a:11:55:75:c0:ae:
                    98:c9:48:49:55:45:49:07:ff:22:61:be:99:d0:69:
                    be:b0:ce:3e:ba:38:a0:94:ee:80:c5:cc:0f:f5:b3:
                    46:b7:f9:73:3e:8e:f7:6c:7e:fc:bd:2f:39:16:93:
                    09:c3:bd:7f:a9:7e:50:ea:5d:4c:e9:f2:09:47:d9:
                    df:26:c3:20:b8:aa:e1:ef:92:cb:7f:c8:9f:30:5c:
                    bd:dc:6e:a5:cb:39:4e:f8:20:a3:82:bd:ac:2a:a0:
                    2a:d0:df:77:1b:07:05:78:23:f2:05:5d:99:6f:e5:
                    bd:95:e1:eb:28:d0:67:34:63:a5:20:b5:01:24:94:
                    4f:72:c5:45:b5:b2:94:95:b1:b3:75:04:22:45:07:
                    50:6f:14:f5:48:75:19:b2:69:9b:9a:e5:40:89:9c:
                    4a:65:c3:5e:6d:31:c6:1d:c1:74:52:50:ef:e0:51:
                    62:72:76:4f:7b:b2:58:2f:22:ca:02:1c:a0:73:fa:
                    07:4d:d1:37:73:b3:08:99:13:4b:d2:31:55:30:98:
                    6b:6e:f0:cb:95:ab:26:1a:08:e5:19:b0:e8:5e:86:
                    49:6c:b1:44:64:98:a5:56:39:b8:6e:40:ad:30:a1:
                    f6:55:2b:87:7c:ef:f0:29:d5:f7:e2:9e:0b:82:90:
                    ef:82:5f:88:96:97:3f:e5:ec:e9:de:62:7f:1d:8f:
                    c2:75:29
                Exponent: 65537 (0x10001)
        X509v3 extensions:
            X509v3 Basic Constraints: 
                CA:FALSE
            Netscape Cert Type: 
                SSL Client, S/MIME
            Netscape Comment: 
                OpenSSL Generated Client Certificate
            X509v3 Subject Key Identifier: 
                9D:70:25:2A:15:26:97:13:7A:E3:87:0B:5C:97:0D:41:8E:D6:FF:CF
            X509v3 Authority Key Identifier: 
                56:10:B7:2E:58:3A:D8:9A:06:3D:99:7A:6C:14:CF:B0:D2:D8:80:E8
            X509v3 Key Usage: critical
                Digital Signature, Non Repudiation, Key Encipherment
            X509v3 Extended Key Usage: 
                TLS Web Client Authentication, E-mail Protection
            X509v3 Subject Alternative Name: 
                email:contact@konghq.com, email:demo@example.com
    Signature Algorithm: sha256WithRSAEncryption
    Signature Value:
        12:b1:5e:0e:8e:15:4a:b7:f9:78:79:62:3c:72:d1:5d:43:da:
        8e:e0:fa:18:60:4e:69:a0:6d:e0:26:17:79:00:39:c8:a5:3d:
        8e:9d:ad:9e:e3:82:c4:36:d6:18:8a:2a:7a:e1:1a:8d:21:c5:
        9b:55:fb:6d:a5:fa:30:21:2a:84:70:3d:10:64:dc:4b:b5:65:
        cf:a6:a5:49:b1:7a:d1:35:ca:88:e9:17:9c:80:c4:2b:08:33:
        c9:b1:01:f7:40:7d:3b:b8:1b:f0:a0:91:34:e6:2f:c4:1b:2f:
        58:c1:c4:61:a4:75:15:8a:34:7f:15:8a:bb:01:99:10:71:74:
        17:d4:78:cf:38:15:2f:e6:2a:4e:e3:d8:f2:94:0a:b3:43:75:
        29:c1:2a:7b:6a:8f:ed:2a:9f:c3:5c:75:d1:f5:be:e5:e7:f3:
        46:94:bc:6d:d3:aa:1b:e4:12:cb:a8:c3:d2:b8:8f:ee:da:1e:
        dd:d3:4e:51:56:d0:6d:58:fa:40:84:60:14:2f:7c:26:f6:b2:
        df:74:e4:f1:b7:06:0e:a2:02:9d:f1:7f:92:6d:96:a4:95:de:
        02:70:81:48:36:0d:c7:7f:76:f5:b9:9b:47:95:25:0f:60:f5:
        e2:5f:0a:ca:22:49:1c:e6:36:61:5e:2f:ef:32:db:47:03:bc:
        9d:67:56:37:85:3d:ac:c2:44:55:e2:88:2f:4e:92:b7:b0:91:
        c5:4e:4d:63:e9:db:a6:a3:db:68:b7:51:59:61:f0:e3:db:3a:
        00:a1:4b:85:3c:eb:b3:10:0c:7a:73:3d:35:99:b3:b0:76:02:
        36:23:28:74:60:67:a0:99:0a:3b:4c:d1:18:48:bc:2e:97:ac:
        47:0f:21:90:d6:fb:66:c1:2b:41:c4:79:d6:85:48:ef:83:45:
        f5:ae:30:b4:8d:f5:a2:34:3f:2c:78:fb:da:97:5d:cf:47:c7:
        0c:11:48:7d:d5:a9:f0:3b:ba:e7:36:79:d8:ef:ce:3f:3c:3a:
        41:18:67:07:04:b4:21:b2:12:11:b1:51:5a:29:61:8f:c6:41:
        14:0d:b4:f2:1e:6c:e8:ce:a1:08:f0:2a:63:ec:4c:a9:2a:4c:
        12:06:ef:69:ca:18:94:be:06:f0:76:27:19:2d:11:86:75:8f:
        e9:2e:17:c8:ae:02:a4:d6:c0:ed:c1:18:6b:44:7b:1b:bb:36:
        cf:db:e9:ce:49:d0:64:5c:81:59:7e:e9:94:70:5b:3e:b2:1c:
        33:af:2d:9c:7d:8f:ce:b3:8a:6c:f8:35:1f:4a:ae:3b:7e:d1:
        b7:42:8a:c3:4c:98:02:91:55:52:eb:df:30:44:87:2c:34:5c:
        cf:43:45:fa:4e:a9:c3:38
-----BEGIN CERTIFICATE-----
MIIGSTCCBDGgAwIBAgIBATANBgkqhkiG9w0BAQsFADBdMQswCQYDVQQGEwJVUzET
MBEGA1UECAwKQ2FsaWZvcm5pYTEWMBQGA1UEBwwNU2FuIEZyYW5jaXNjbzESMBAG
A1UECgwJS29uZyBJbmMuMQ0wCwYDVQQDDARLb25nMB4XDTI0MDQwODE3MDYyMFoX
DTM0MDQwNjE3MDYyMFowejELMAkGA1UEBhMCVVMxEzARBgNVBAgMCkNhbGlmb3Ju
aWExEjAQBgNVBAoMCUtvbmcgSW5jLjEQMA4GA1UECwwHS29ubmVjdDENMAsGA1UE
AwwEa29uZzEhMB8GCSqGSIb3DQEJARYSY29udGFjdEBrb25naHEuY29tMIICIjAN
BgkqhkiG9w0BAQEFAAOCAg8AMIICCgKCAgEAqVAKBgLs6gzxqXS/s/7x9/HsLxps
XSF+6onmNmDCRtNtCC7VlncClhEl0MMzWhMMflhqSELObTEE3IcZ3nbORr+DlO+g
RZhWmoESxk2XKRXobKW99/RAU6A3rr2pZq+5otxQK5ZL2L8JOem3GvFSBMs5jFW6
j25k0UfShm6yZaDX4766p3LbP0lwQw58X7QJmppEOHAfo+GKSyH+DVzDfUyZKZxx
KT6+zS8/dI/Vl+pSdcP/NB7mFpoaZvesykq7iG74tE1yREOu7895QxEn6BUsHduI
sAqX9qfB3WTeAPK/BgfZutSnpwFU4VP5J64PA6Flfj32tp1qEVV1wK6YyUhJVUVJ
B/8iYb6Z0Gm+sM4+ujiglO6AxcwP9bNGt/lzPo73bH78vS85FpMJw71/qX5Q6l1M
6fIJR9nfJsMguKrh75LLf8ifMFy93G6lyzlO+CCjgr2sKqAq0N93GwcFeCPyBV2Z
b+W9leHrKNBnNGOlILUBJJRPcsVFtbKUlbGzdQQiRQdQbxT1SHUZsmmbmuVAiZxK
ZcNebTHGHcF0UlDv4FFicnZPe7JYLyLKAhygc/oHTdE3c7MImRNL0jFVMJhrbvDL
lasmGgjlGbDoXoZJbLFEZJilVjm4bkCtMKH2VSuHfO/wKdX34p4LgpDvgl+Ilpc/
5ezp3mJ/HY/CdSkCAwEAAaOB9jCB8zAJBgNVHRMEAjAAMBEGCWCGSAGG+EIBAQQE
AwIFoDAzBglghkgBhvhCAQ0EJhYkT3BlblNTTCBHZW5lcmF0ZWQgQ2xpZW50IENl
cnRpZmljYXRlMB0GA1UdDgQWBBSdcCUqFSaXE3rjhwtclw1Bjtb/zzAfBgNVHSME
GDAWgBRWELcuWDrYmgY9mXpsFM+w0tiA6DAOBgNVHQ8BAf8EBAMCBeAwHQYDVR0l
BBYwFAYIKwYBBQUHAwIGCCsGAQUFBwMEMC8GA1UdEQQoMCaBEmNvbnRhY3RAa29u
Z2hxLmNvbYEQZGVtb0BleGFtcGxlLmNvbTANBgkqhkiG9w0BAQsFAAOCAgEAErFe
Do4VSrf5eHliPHLRXUPajuD6GGBOaaBt4CYXeQA5yKU9jp2tnuOCxDbWGIoqeuEa
jSHFm1X7baX6MCEqhHA9EGTcS7Vlz6alSbF60TXKiOkXnIDEKwgzybEB90B9O7gb
8KCRNOYvxBsvWMHEYaR1FYo0fxWKuwGZEHF0F9R4zzgVL+YqTuPY8pQKs0N1KcEq
e2qP7Sqfw1x10fW+5efzRpS8bdOqG+QSy6jD0riP7toe3dNOUVbQbVj6QIRgFC98
Jvay33Tk8bcGDqICnfF/km2WpJXeAnCBSDYNx3929bmbR5UlD2D14l8KyiJJHOY2
YV4v7zLbRwO8nWdWN4U9rMJEVeKIL06St7CRxU5NY+nbpqPbaLdRWWHw49s6AKFL
hTzrsxAMenM9NZmzsHYCNiModGBnoJkKO0zRGEi8LpesRw8hkNb7ZsErQcR51oVI
74NF9a4wtI31ojQ/LHj72pddz0fHDBFIfdWp8Du65zZ52O/OPzw6QRhnBwS0IbIS
EbFRWilhj8ZBFA208h5s6M6hCPAqY+xMqSpMEgbvacoYlL4G8HYnGS0RhnWP6S4X
yK4CpNbA7cEYa0R7G7s2z9vpzknQZFyBWX7plHBbPrIcM68tnH2PzrOKbPg1H0qu
O37Rt0KKw0yYApFVUuvfMESHLDRcz0NF+k6pwzg=
-----END CERTIFICATE-----
